target datalayout = "e-m:e-p270:32:32-p271:32:32-p272:64:64-i64:64-i128:128-f80:128-n8:16:32:64-S128"
target triple = "x86_64-unknown-linux-gnu"

%class.RBDataMap = type { %class.DataMap, ptr }
%class.DataMap = type { ptr }
%"class.icu_75::Hashtable" = type { ptr, %struct.UHashtable }
%struct.UHashtable = type { ptr, ptr, ptr, ptr, ptr, ptr, i32, i32, i32, i32, float, float, i8, i8 }

; Function Attrs: mustprogress nounwind uwtable
define internal noundef signext i8 @_ZL9U_SUCCESS10UErrorCode(i32 noundef %code) #0 {
entry:
  %code.addr = alloca i32, align 4
  store i32 %code, ptr %code.addr, align 4
  %0 = load i32, ptr %code.addr, align 4
  %cmp = icmp sle i32 %0, 0
  %conv = zext i1 %cmp to i8
  ret i8 %conv
}

; Function Attrs: mustprogress nounwind uwtable
define internal noundef signext i8 @_ZL9U_FAILURE10UErrorCode(i32 noundef %code) #0 {
entry:
  %code.addr = alloca i32, align 4
  store i32 %code, ptr %code.addr, align 4
  %0 = load i32, ptr %code.addr, align 4
  %cmp = icmp sgt i32 %0, 0
  %conv = zext i1 %cmp to i8
  ret i8 %conv
}

; Function Attrs: mustprogress uwtable
define linkonce_odr void @_ZN6icu_759Hashtable4initEPFi8UElementEPFaS1_S1_ES5_R10UErrorCode(ptr noundef nonnull align 8 dereferenceable(88) %this, ptr noundef %keyHash, ptr noundef %keyComp, ptr noundef %valueComp, ptr noundef nonnull align 4 dereferenceable(4) %status) #2 comdat align 2 {
entry:
  %this.addr = alloca ptr, align 8
  %keyHash.addr = alloca ptr, align 8
  %keyComp.addr = alloca ptr, align 8
  %valueComp.addr = alloca ptr, align 8
  %status.addr = alloca ptr, align 8
  store ptr %this, ptr %this.addr, align 8
  store ptr %keyHash, ptr %keyHash.addr, align 8
  store ptr %keyComp, ptr %keyComp.addr, align 8
  store ptr %valueComp, ptr %valueComp.addr, align 8
  store ptr %status, ptr %status.addr, align 8
  %this1 = load ptr, ptr %this.addr, align 8
  %0 = load ptr, ptr %status.addr, align 8
  %1 = load i32, ptr %0, align 4
  %call = call noundef signext i8 @_ZL9U_FAILURE10UErrorCode(i32 noundef %1)
  %tobool = icmp ne i8 %call, 0
  br i1 %tobool, label %if.then, label %if.end

if.then:                                          ; preds = %entry
  br label %if.end9

if.end:                                           ; preds = %entry
  %hashObj = getelementptr inbounds %"class.icu_75::Hashtable", ptr %this1, i32 0, i32 1
  %2 = load ptr, ptr %keyHash.addr, align 8
  %3 = load ptr, ptr %keyComp.addr, align 8
  %4 = load ptr, ptr %valueComp.addr, align 8
  %5 = load ptr, ptr %status.addr, align 8
  %call2 = call ptr @uhash_init_75(ptr noundef %hashObj, ptr noundef %2, ptr noundef %3, ptr noundef %4, ptr noundef %5)
  %6 = load ptr, ptr %status.addr, align 8
  %7 = load i32, ptr %6, align 4
  %call3 = call noundef signext i8 @_ZL9U_SUCCESS10UErrorCode(i32 noundef %7)
  %tobool4 = icmp ne i8 %call3, 0
  br i1 %tobool4, label %if.then5, label %if.end9

if.then5:                                         ; preds = %if.end
  %hashObj6 = getelementptr inbounds %"class.icu_75::Hashtable", ptr %this1, i32 0, i32 1
  %hash = getelementptr inbounds %"class.icu_75::Hashtable", ptr %this1, i32 0, i32 0
  store ptr %hashObj6, ptr %hash, align 8
  %hash7 = getelementptr inbounds %"class.icu_75::Hashtable", ptr %this1, i32 0, i32 0
  %8 = load ptr, ptr %hash7, align 8
  %call8 = call ptr @uhash_setKeyDeleter_75(ptr noundef %8, ptr noundef @uprv_deleteUObject_75)
  br label %if.end9

if.end9:                                          ; preds = %if.then5, %if.end, %if.then
  ret void
}

; Function Attrs: mustprogress nounwind uwtable
define void @_ZN7DataMapD2Ev(ptr noundef nonnull align 8 dereferenceable(8) %this) unnamed_addr #0 align 2 {
entry:
  %this.addr = alloca ptr, align 8
  store ptr %this, ptr %this.addr, align 8
  ret void
}

; Function Attrs: mustprogress uwtable
define linkonce_odr noundef ptr @_ZN6icu_759Hashtable15setValueDeleterEPFvPvE(ptr noundef nonnull align 8 dereferenceable(88) %this, ptr noundef %fn) #2 comdat align 2 {
entry:
  %this.addr = alloca ptr, align 8
  %fn.addr = alloca ptr, align 8
  store ptr %this, ptr %this.addr, align 8
  store ptr %fn, ptr %fn.addr, align 8
  %this1 = load ptr, ptr %this.addr, align 8
  %hash = getelementptr inbounds %"class.icu_75::Hashtable", ptr %this1, i32 0, i32 0
  %0 = load ptr, ptr %hash, align 8
  %1 = load ptr, ptr %fn.addr, align 8
  %call = call ptr @uhash_setValueDeleter_75(ptr noundef %0, ptr noundef %1)
  ret ptr %call
}

; Function Attrs: mustprogress uwtable
define linkonce_odr void @_ZN6icu_759HashtableC2EaR10UErrorCode(ptr noundef nonnull align 8 dereferenceable(88) %this, i8 noundef signext %ignoreKeyCase, ptr noundef nonnull align 4 dereferenceable(4) %status) unnamed_addr #2 comdat align 2 {
entry:
  %this.addr = alloca ptr, align 8
  %ignoreKeyCase.addr = alloca i8, align 1
  %status.addr = alloca ptr, align 8
  store ptr %this, ptr %this.addr, align 8
  store i8 %ignoreKeyCase, ptr %ignoreKeyCase.addr, align 1
  store ptr %status, ptr %status.addr, align 8
  %this1 = load ptr, ptr %this.addr, align 8
  %hash = getelementptr inbounds %"class.icu_75::Hashtable", ptr %this1, i32 0, i32 0
  store ptr null, ptr %hash, align 8
  %0 = load i8, ptr %ignoreKeyCase.addr, align 1
  %tobool = icmp ne i8 %0, 0
  br i1 %tobool, label %cond.true, label %cond.false

cond.true:                                        ; preds = %entry
  br label %cond.end

cond.false:                                       ; preds = %entry
  br label %cond.end

cond.end:                                         ; preds = %cond.false, %cond.true
  %cond-lvalue = phi ptr [ @uhash_hashCaselessUnicodeString_75, %cond.true ], [ @uhash_hashUnicodeString_75, %cond.false ]
  %1 = load i8, ptr %ignoreKeyCase.addr, align 1
  %tobool2 = icmp ne i8 %1, 0
  br i1 %tobool2, label %cond.true3, label %cond.false4

cond.true3:                                       ; preds = %cond.end
  br label %cond.end5

cond.false4:                                      ; preds = %cond.end
  br label %cond.end5

cond.end5:                                        ; preds = %cond.false4, %cond.true3
  %cond-lvalue6 = phi ptr [ @uhash_compareCaselessUnicodeString_75, %cond.true3 ], [ @uhash_compareUnicodeString_75, %cond.false4 ]
  %2 = load ptr, ptr %status.addr, align 8
  call void @_ZN6icu_759Hashtable4initEPFi8UElementEPFaS1_S1_ES5_R10UErrorCode(ptr noundef nonnull align 8 dereferenceable(88) %this1, ptr noundef %cond-lvalue, ptr noundef %cond-lvalue6, ptr noundef null, ptr noundef nonnull align 4 dereferenceable(4) %2)
  ret void
}

; Function Attrs: mustprogress nounwind uwtable
define void @_ZN7DataMapC2Ev(ptr noundef nonnull align 8 dereferenceable(8) %this) unnamed_addr #0 align 2 {
entry:
  %this.addr = alloca ptr, align 8
  store ptr %this, ptr %this.addr, align 8
  %this1 = load ptr, ptr %this.addr, align 8
  store ptr getelementptr inbounds ({ [12 x ptr] }, ptr @_ZTV7DataMap, i32 0, i32 0, i32 2), ptr %this1, align 8
  ret void
}

; Function Attrs: mustprogress uwtable
define void @_ZN9RBDataMapC2Ev(ptr noundef nonnull align 8 dereferenceable(16) %this) unnamed_addr #2 align 2 personality ptr @__gxx_personality_v0 {
entry:
  %this.addr = alloca ptr, align 8
  %status = alloca i32, align 4
  %cleanup.cond = alloca i1, align 1
  %exn.slot = alloca ptr, align 8
  %ehselector.slot = alloca i32, align 4
  store ptr %this, ptr %this.addr, align 8
  %this1 = load ptr, ptr %this.addr, align 8
  call void @_ZN7DataMapC2Ev(ptr noundef nonnull align 8 dereferenceable(8) %this1)
  store ptr getelementptr inbounds ({ [13 x ptr] }, ptr @_ZTV9RBDataMap, i32 0, i32 0, i32 2), ptr %this1, align 8
  store i32 0, ptr %status, align 4
  %call = call noundef ptr @_ZN6icu_757UMemorynwEm(i64 noundef 88) #12
  %new.isnull = icmp eq ptr %call, null
  store i1 false, ptr %cleanup.cond, align 1
  br i1 %new.isnull, label %new.cont, label %new.notnull

new.notnull:                                      ; preds = %entry
  store i1 true, ptr %cleanup.cond, align 1
  invoke void @_ZN6icu_759HashtableC2EaR10UErrorCode(ptr noundef nonnull align 8 dereferenceable(88) %call, i8 noundef signext 1, ptr noundef nonnull align 4 dereferenceable(4) %status)
          to label %invoke.cont unwind label %lpad

invoke.cont:                                      ; preds = %new.notnull
  br label %new.cont

new.cont:                                         ; preds = %invoke.cont, %entry
  %0 = phi ptr [ %call, %invoke.cont ], [ null, %entry ]
  %fData = getelementptr inbounds %class.RBDataMap, ptr %this1, i32 0, i32 1
  store ptr %0, ptr %fData, align 8
  %fData2 = getelementptr inbounds %class.RBDataMap, ptr %this1, i32 0, i32 1
  %1 = load ptr, ptr %fData2, align 8
  %call5 = invoke noundef ptr @_ZN6icu_759Hashtable15setValueDeleterEPFvPvE(ptr noundef nonnull align 8 dereferenceable(88) %1, ptr noundef @deleteResBund)
          to label %invoke.cont4 unwind label %lpad3

invoke.cont4:                                     ; preds = %new.cont
  ret void

lpad:                                             ; preds = %new.notnull
  %2 = landingpad { ptr, i32 }
          cleanup
  %3 = extractvalue { ptr, i32 } %2, 0
  store ptr %3, ptr %exn.slot, align 8
  %4 = extractvalue { ptr, i32 } %2, 1
  store i32 %4, ptr %ehselector.slot, align 4
  %cleanup.is_active = load i1, ptr %cleanup.cond, align 1
  br i1 %cleanup.is_active, label %cleanup.action, label %cleanup.done

cleanup.action:                                   ; preds = %lpad
  call void @_ZN6icu_757UMemorydlEPv(ptr noundef %call) #12
  br label %cleanup.done

cleanup.done:                                     ; preds = %cleanup.action, %lpad
  br label %ehcleanup

lpad3:                                            ; preds = %new.cont
  %5 = landingpad { ptr, i32 }
          cleanup
  %6 = extractvalue { ptr, i32 } %5, 0
  store ptr %6, ptr %exn.slot, align 8
  %7 = extractvalue { ptr, i32 } %5, 1
  store i32 %7, ptr %ehselector.slot, align 4
  br label %ehcleanup

ehcleanup:                                        ; preds = %lpad3, %cleanup.done
  call void @_ZN7DataMapD2Ev(ptr noundef nonnull align 8 dereferenceable(8) %this1) #12
  br label %eh.resume

eh.resume:                                        ; preds = %ehcleanup
  %exn = load ptr, ptr %exn.slot, align 8
  %sel = load i32, ptr %ehselector.slot, align 4
  %lpad.val = insertvalue { ptr, i32 } poison, ptr %exn, 0
  %lpad.val6 = insertvalue { ptr, i32 } %lpad.val, i32 %sel, 1
  resume { ptr, i32 } %lpad.val6
}